; Function Attrs: nounwind uwtable
define internal i32 @lj_cf_io_method_close(ptr noundef %0) #0 {
  %2 = getelementptr inbounds nuw i8, ptr %0, i64 32
  %3 = load ptr, ptr %2, align 8, !tbaa !25
  %4 = getelementptr inbounds nuw i8, ptr %0, i64 40
  %5 = load ptr, ptr %4, align 8, !tbaa !4
  %6 = icmp ult ptr %3, %5
  br i1 %6, label %7, label %21

7:                                                ; preds = %1
  %8 = load i64, ptr %3, align 8, !tbaa !14
  %.mask.i.i = and i64 %8, -140737488355328
  %9 = icmp eq i64 %.mask.i.i, -1829587348619264
  br i1 %9, label %10, label %16

10:                                               ; preds = %7
  %11 = and i64 %8, 140737488355327
  %12 = inttoptr i64 %11 to ptr
  %13 = getelementptr inbounds nuw i8, ptr %12, i64 10
  %14 = load i8, ptr %13, align 2, !tbaa !14
  %15 = icmp eq i8 %14, 1
  br i1 %15, label %io_tofilep.exit.i, label %16

16:                                               ; preds = %10, %7
  tail call void @lj_err_argtype(ptr noundef nonnull %0, i32 noundef 1, ptr noundef nonnull @.str) #11
  unreachable

io_tofilep.exit.i:                                ; preds = %10
  %17 = getelementptr inbounds nuw i8, ptr %12, i64 48
  %18 = load ptr, ptr %17, align 8, !tbaa !20
  %19 = icmp eq ptr %18, null
  br i1 %19, label %20, label %io_tofile.exit

20:                                               ; preds = %io_tofilep.exit.i
  tail call void @lj_err_caller(ptr noundef nonnull %0, i32 noundef 1531) #11
  unreachable

21:                                               ; preds = %1
  %22 = getelementptr inbounds nuw i8, ptr %0, i64 16
  %23 = load i64, ptr %22, align 8, !tbaa !23
  %24 = inttoptr i64 %23 to ptr
  %25 = getelementptr inbounds nuw i8, ptr %24, i64 720
  %26 = load i64, ptr %25, align 8, !tbaa !24
  %27 = inttoptr i64 %26 to ptr
  %28 = getelementptr inbounds nuw i8, ptr %27, i64 48
  %29 = load ptr, ptr %28, align 8, !tbaa !20
  %30 = icmp eq ptr %29, null
  br i1 %30, label %31, label %io_tofile.exit

31:                                               ; preds = %21
  tail call void @lj_err_caller(ptr noundef nonnull %0, i32 noundef 1531) #11
  unreachable

io_tofile.exit:                                   ; preds = %io_tofilep.exit.i, %21
  %32 = phi ptr [ %29, %21 ], [ %18, %io_tofilep.exit.i ]
  %.0 = phi ptr [ %28, %21 ], [ %17, %io_tofilep.exit.i ]
  %33 = getelementptr inbounds nuw i8, ptr %.0, i64 8
  %34 = load i32, ptr %33, align 8, !tbaa !22
  %35 = and i32 %34, 3
  switch i32 %35, label %42 [
    i32 0, label %36
    i32 1, label %39
  ]

36:                                               ; preds = %io_tofile.exit
  %37 = tail call i32 @fclose(ptr noundef nonnull %32)
  %38 = icmp eq i32 %37, 0
  br label %44

39:                                               ; preds = %io_tofile.exit
  %40 = tail call i32 @pclose(ptr noundef nonnull %32)
  %41 = icmp ne i32 %40, -1
  br label %44

42:                                               ; preds = %io_tofile.exit
  %43 = getelementptr inbounds nuw i8, ptr %5, i64 8
  store ptr %43, ptr %4, align 8, !tbaa !4
  store i64 -1, ptr %5, align 8, !tbaa !14
  tail call void @lua_pushlstring(ptr noundef nonnull %0, ptr noundef nonnull @.str.5, i64 noundef 26) #10
  br label %io_file_close.exit

44:                                               ; preds = %39, %36
  %.010.in.i = phi i1 [ %38, %36 ], [ %41, %39 ]
  %.010.i = zext i1 %.010.in.i to i32
  store ptr null, ptr %.0, align 8, !tbaa !20
  %45 = tail call i32 @luaL_fileresult(ptr noundef nonnull %0, i32 noundef %.010.i, ptr noundef null) #10
  br label %io_file_close.exit

io_file_close.exit:                               ; preds = %42, %44
  %.0.i = phi i32 [ %45, %44 ], [ 2, %42 ]
  ret i32 %.0.i
}